; Function Attrs: mustprogress uwtable
define internal void @_ZL60InitDefaultsscc_info_SentencePieceText_sentencepiece_2eprotov() #3 personality ptr @__gxx_personality_v0 {
  tail call void @_ZN6google8protobuf8internal13VerifyVersionEiiPKc(i32 noundef 3014000, i32 noundef 3014000, ptr noundef nonnull @.str)
  store ptr null, ptr getelementptr inbounds nuw (i8, ptr @_ZN13sentencepiece36_SentencePieceText_default_instance_E, i64 8), align 8, !tbaa !3
  store ptr getelementptr inbounds nuw inrange(-16, 112) (i8, ptr @_ZTVN13sentencepiece17SentencePieceTextE, i64 16), ptr @_ZN13sentencepiece36_SentencePieceText_default_instance_E, align 8, !tbaa !8
  tail call void @_ZN6google8protobuf8internal12ExtensionSetC1EPNS0_5ArenaE(ptr noundef nonnull align 8 dereferenceable(24) getelementptr inbounds nuw (i8, ptr @_ZN13sentencepiece36_SentencePieceText_default_instance_E, i64 16), ptr noundef null)
  tail call void @llvm.memset.p0.i64(ptr noundef nonnull align 8 dereferenceable(32) getelementptr inbounds nuw (i8, ptr @_ZN13sentencepiece36_SentencePieceText_default_instance_E, i64 40), i8 0, i64 32, i1 false)
  %1 = load atomic i32, ptr @scc_info_SentencePieceText_sentencepiece_2eproto acquire, align 8
  %.not.i.i.i.i = icmp eq i32 %1, 0
  br i1 %.not.i.i.i.i, label %_ZN13sentencepiece17SentencePieceTextC2Ev.exit, label %2, !prof !10

2:                                                ; preds = %0
  invoke void @_ZN6google8protobuf8internal11InitSCCImplEPNS1_11SCCInfoBaseE(ptr noundef nonnull @scc_info_SentencePieceText_sentencepiece_2eproto)
          to label %_ZN13sentencepiece17SentencePieceTextC2Ev.exit unwind label %3

3:                                                ; preds = %2
  %4 = landingpad { ptr, i32 }
          cleanup
  tail call void @_ZN6google8protobuf16RepeatedPtrFieldIN13sentencepiece31SentencePieceText_SentencePieceEED2Ev(ptr noundef nonnull align 8 dereferenceable(24) getelementptr inbounds nuw (i8, ptr @_ZN13sentencepiece36_SentencePieceText_default_instance_E, i64 48)) #19
  tail call void @_ZN6google8protobuf8internal12ExtensionSetD1Ev(ptr noundef nonnull align 8 dereferenceable(24) getelementptr inbounds nuw (i8, ptr @_ZN13sentencepiece36_SentencePieceText_default_instance_E, i64 16)) #19
  resume { ptr, i32 } %4

_ZN13sentencepiece17SentencePieceTextC2Ev.exit:   ; preds = %0, %2
  store ptr @_ZN6google8protobuf8internal26fixed_address_empty_stringE, ptr getelementptr inbounds nuw (i8, ptr @_ZN13sentencepiece36_SentencePieceText_default_instance_E, i64 72), align 8, !tbaa !11
  store float 0.000000e+00, ptr getelementptr inbounds nuw (i8, ptr @_ZN13sentencepiece36_SentencePieceText_default_instance_E, i64 80), align 8, !tbaa !13
  tail call void @_ZN6google8protobuf8internal13OnShutdownRunEPFvPKvES3_(ptr noundef nonnull @_ZN6google8protobuf8internal14DestroyMessageEPKv, ptr noundef nonnull @_ZN13sentencepiece36_SentencePieceText_default_instance_E)
  ret void
}